target datalayout = "e-m:e-p270:32:32-p271:32:32-p272:64:64-i64:64-i128:128-f80:128-n8:16:32:64-S128"
target triple = "x86_64-pc-linux-gnu"

%struct.wtap = type { ptr, ptr, i8, i32, i32, ptr, ptr, ptr, i32, ptr, ptr, ptr, ptr, ptr, ptr, ptr, ptr, ptr, ptr, i32, i32, ptr, ptr, ptr, ptr }
%struct.peekclassic_t = type { i64 }
%struct.wtap_rec = type { i32, i32, i32, %struct.nstime_t, i32, %struct.nstime_t, i8, %union.anon.0, ptr, i8, %struct.Buffer, %struct.Buffer }
%struct.nstime_t = type { i64, i32 }
%union.anon.0 = type { %struct.wtap_packet_header }
%struct.wtap_packet_header = type { i32, i32, i32, i32, %union.wtap_pseudo_header }
%union.wtap_pseudo_header = type { %struct.erf_mc_phdr }
%struct.erf_mc_phdr = type { %struct.erf_phdr, [16 x %struct.erf_ehdr], %union.anon.2 }
%struct.erf_phdr = type { i64, i8, i8, i16, i16, i16 }
%struct.erf_ehdr = type { i64 }
%union.anon.2 = type { i32 }
%struct.Buffer = type { ptr, i64, i64, i64 }
%struct.eth_phdr = type { i32 }

; Function Attrs: inlinehint nounwind null_pointer_is_valid sspstrong uwtable
define internal i32 @pntoh32(ptr noundef %0) #7 {
  %2 = alloca ptr, align 8
  store ptr %0, ptr %2, align 8
  %3 = load ptr, ptr %2, align 8
  %4 = getelementptr i8, ptr %3, i64 0
  %5 = load i8, ptr %4, align 1
  %6 = zext i8 %5 to i32
  %7 = shl i32 %6, 24
  %8 = load ptr, ptr %2, align 8
  %9 = getelementptr i8, ptr %8, i64 1
  %10 = load i8, ptr %9, align 1
  %11 = zext i8 %10 to i32
  %12 = shl i32 %11, 16
  %13 = or i32 %7, %12
  %14 = load ptr, ptr %2, align 8
  %15 = getelementptr i8, ptr %14, i64 2
  %16 = load i8, ptr %15, align 1
  %17 = zext i8 %16 to i32
  %18 = shl i32 %17, 8
  %19 = or i32 %13, %18
  %20 = load ptr, ptr %2, align 8
  %21 = getelementptr i8, ptr %20, i64 3
  %22 = load i8, ptr %21, align 1
  %23 = zext i8 %22 to i32
  %24 = shl i32 %23, 0
  %25 = or i32 %19, %24
  ret i32 %25
}

; Function Attrs: inlinehint nounwind null_pointer_is_valid sspstrong uwtable
define internal zeroext i16 @pntoh16(ptr noundef %0) #7 {
  %2 = alloca ptr, align 8
  store ptr %0, ptr %2, align 8
  %3 = load ptr, ptr %2, align 8
  %4 = getelementptr i8, ptr %3, i64 0
  %5 = load i8, ptr %4, align 1
  %6 = zext i8 %5 to i16
  %7 = zext i16 %6 to i32
  %8 = shl i32 %7, 8
  %9 = load ptr, ptr %2, align 8
  %10 = getelementptr i8, ptr %9, i64 1
  %11 = load i8, ptr %10, align 1
  %12 = zext i8 %11 to i16
  %13 = zext i16 %12 to i32
  %14 = shl i32 %13, 0
  %15 = or i32 %8, %14
  %16 = trunc i32 %15 to i16
  ret i16 %16
}

; Function Attrs: null_pointer_is_valid sspstrong uwtable
define internal zeroext i1 @peekclassic_read_packet_v56(ptr noundef %0, ptr noundef %1, ptr noundef %2, ptr noundef %3, ptr noundef %4) #0 {
  %6 = alloca i1, align 1
  %7 = alloca ptr, align 8
  %8 = alloca ptr, align 8
  %9 = alloca ptr, align 8
  %10 = alloca ptr, align 8
  %11 = alloca ptr, align 8
  %12 = alloca ptr, align 8
  %13 = alloca [26 x i8], align 16
  %14 = alloca i16, align 2
  %15 = alloca i16, align 2
  %16 = alloca i8, align 1
  %17 = alloca i32, align 4
  %18 = alloca i32, align 4
  %19 = alloca i32, align 4
  store ptr %0, ptr %7, align 8
  store ptr %1, ptr %8, align 8
  store ptr %2, ptr %9, align 8
  store ptr %3, ptr %10, align 8
  store ptr %4, ptr %11, align 8
  call void @llvm.lifetime.start.p0(i64 8, ptr %12) #11
  %20 = load ptr, ptr %7, align 8
  %21 = getelementptr inbounds nuw %struct.wtap, ptr %20, i32 0, i32 13
  %22 = load ptr, ptr %21, align 8
  store ptr %22, ptr %12, align 8
  call void @llvm.lifetime.start.p0(i64 26, ptr %13) #11
  call void @llvm.lifetime.start.p0(i64 2, ptr %14) #11
  call void @llvm.lifetime.start.p0(i64 2, ptr %15) #11
  call void @llvm.lifetime.start.p0(i64 1, ptr %16) #11
  call void @llvm.lifetime.start.p0(i64 4, ptr %17) #11
  call void @llvm.lifetime.start.p0(i64 4, ptr %18) #11
  %23 = load ptr, ptr %8, align 8
  %24 = getelementptr inbounds [26 x i8], ptr %13, i64 0, i64 0
  %25 = load ptr, ptr %10, align 8
  %26 = load ptr, ptr %11, align 8
  %27 = call zeroext i1 @wtap_read_bytes_or_eof(ptr noundef %23, ptr noundef %24, i32 noundef 26, ptr noundef %25, ptr noundef %26)
  br i1 %27, label %29, label %28

28:                                               ; preds = %5
  store i1 false, ptr %6, align 1
  store i32 1, ptr %19, align 4
  br label %124

29:                                               ; preds = %5
  %30 = getelementptr [26 x i8], ptr %13, i64 0, i64 0
  %31 = call zeroext i16 @pntoh16(ptr noundef %30)
  store i16 %31, ptr %14, align 2
  %32 = getelementptr [26 x i8], ptr %13, i64 0, i64 2
  %33 = call zeroext i16 @pntoh16(ptr noundef %32)
  store i16 %33, ptr %15, align 2
  %34 = getelementptr [26 x i8], ptr %13, i64 0, i64 4
  %35 = load i8, ptr %34, align 4
  store i8 %35, ptr %16, align 1
  %36 = getelementptr [26 x i8], ptr %13, i64 0, i64 6
  %37 = call i32 @pntoh32(ptr noundef %36)
  store i32 %37, ptr %17, align 4
  %38 = load i16, ptr %15, align 2
  %39 = zext i16 %38 to i32
  %40 = icmp eq i32 0, %39
  br i1 %40, label %41, label %43

41:                                               ; preds = %29
  %42 = load i16, ptr %14, align 2
  store i16 %42, ptr %15, align 2
  br label %43

43:                                               ; preds = %41, %29
  %44 = load ptr, ptr %9, align 8
  %45 = getelementptr inbounds nuw %struct.wtap_rec, ptr %44, i32 0, i32 0
  store i32 0, ptr %45, align 8
  %46 = call ptr @wtap_block_create(i32 noundef 5)
  %47 = load ptr, ptr %9, align 8
  %48 = getelementptr inbounds nuw %struct.wtap_rec, ptr %47, i32 0, i32 8
  store ptr %46, ptr %48, align 8
  %49 = load ptr, ptr %9, align 8
  %50 = getelementptr inbounds nuw %struct.wtap_rec, ptr %49, i32 0, i32 1
  store i32 3, ptr %50, align 4
  %51 = load ptr, ptr %12, align 8
  %52 = getelementptr inbounds nuw %struct.peekclassic_t, ptr %51, i32 0, i32 0
  %53 = load i64, ptr %52, align 8
  %54 = load i32, ptr %17, align 4
  %55 = udiv i32 %54, 1000
  %56 = zext i32 %55 to i64
  %57 = add i64 %53, %56
  %58 = load ptr, ptr %9, align 8
  %59 = getelementptr inbounds nuw %struct.wtap_rec, ptr %58, i32 0, i32 3
  %60 = getelementptr inbounds nuw %struct.nstime_t, ptr %59, i32 0, i32 0
  store i64 %57, ptr %60, align 8
  %61 = load i32, ptr %17, align 4
  %62 = urem i32 %61, 1000
  %63 = mul i32 1000, %62
  %64 = mul i32 %63, 1000
  %65 = load ptr, ptr %9, align 8
  %66 = getelementptr inbounds nuw %struct.wtap_rec, ptr %65, i32 0, i32 3
  %67 = getelementptr inbounds nuw %struct.nstime_t, ptr %66, i32 0, i32 1
  store i32 %64, ptr %67, align 8
  %68 = load i16, ptr %14, align 2
  %69 = zext i16 %68 to i32
  %70 = load ptr, ptr %9, align 8
  %71 = getelementptr inbounds nuw %struct.wtap_rec, ptr %70, i32 0, i32 7
  %72 = getelementptr inbounds nuw %struct.wtap_packet_header, ptr %71, i32 0, i32 1
  store i32 %69, ptr %72, align 4
  %73 = load i16, ptr %15, align 2
  %74 = zext i16 %73 to i32
  %75 = load ptr, ptr %9, align 8
  %76 = getelementptr inbounds nuw %struct.wtap_rec, ptr %75, i32 0, i32 7
  %77 = getelementptr inbounds nuw %struct.wtap_packet_header, ptr %76, i32 0, i32 0
  store i32 %74, ptr %77, align 8
  store i32 0, ptr %18, align 4
  %78 = load i8, ptr %16, align 1
  %79 = zext i8 %78 to i32
  %80 = and i32 %79, 2
  %81 = icmp ne i32 %80, 0
  br i1 %81, label %82, label %85

82:                                               ; preds = %43
  %83 = load i32, ptr %18, align 4
  %84 = or i32 %83, 16777216
  store i32 %84, ptr %18, align 4
  br label %85

85:                                               ; preds = %82, %43
  %86 = load i8, ptr %16, align 1
  %87 = zext i8 %86 to i32
  %88 = and i32 %87, 16
  %89 = icmp ne i32 %88, 0
  br i1 %89, label %90, label %93

90:                                               ; preds = %85
  %91 = load i32, ptr %18, align 4
  %92 = or i32 %91, 33554432
  store i32 %92, ptr %18, align 4
  br label %93

93:                                               ; preds = %90, %85
  %94 = load i8, ptr %16, align 1
  %95 = zext i8 %94 to i32
  %96 = and i32 %95, 32
  %97 = icmp ne i32 %96, 0
  br i1 %97, label %98, label %101

98:                                               ; preds = %93
  %99 = load i32, ptr %18, align 4
  %100 = or i32 %99, 67108864
  store i32 %100, ptr %18, align 4
  br label %101

101:                                              ; preds = %98, %93
  %102 = load ptr, ptr %9, align 8
  %103 = getelementptr inbounds nuw %struct.wtap_rec, ptr %102, i32 0, i32 8
  %104 = load ptr, ptr %103, align 8
  %105 = load i32, ptr %18, align 4
  %106 = call i32 @wtap_block_add_uint32_option(ptr noundef %104, i32 noundef 2, i32 noundef %105)
  %107 = load ptr, ptr %7, align 8
  %108 = getelementptr inbounds nuw %struct.wtap, ptr %107, i32 0, i32 19
  %109 = load i32, ptr %108, align 8
  switch i32 %109, label %115 [
    i32 1, label %110
  ]

110:                                              ; preds = %101
  %111 = load ptr, ptr %9, align 8
  %112 = getelementptr inbounds nuw %struct.wtap_rec, ptr %111, i32 0, i32 7
  %113 = getelementptr inbounds nuw %struct.wtap_packet_header, ptr %112, i32 0, i32 4
  %114 = getelementptr inbounds nuw %struct.eth_phdr, ptr %113, i32 0, i32 0
  store i32 0, ptr %114, align 8
  br label %115

115:                                              ; preds = %101, %110
  %116 = load ptr, ptr %8, align 8
  %117 = load ptr, ptr %9, align 8
  %118 = getelementptr inbounds nuw %struct.wtap_rec, ptr %117, i32 0, i32 11
  %119 = load i16, ptr %15, align 2
  %120 = zext i16 %119 to i32
  %121 = load ptr, ptr %10, align 8
  %122 = load ptr, ptr %11, align 8
  %123 = call zeroext i1 @wtap_read_bytes_buffer(ptr noundef %116, ptr noundef %118, i32 noundef %120, ptr noundef %121, ptr noundef %122)
  store i1 %123, ptr %6, align 1
  store i32 1, ptr %19, align 4
  br label %124

124:                                              ; preds = %115, %28
  call void @llvm.lifetime.end.p0(i64 4, ptr %18) #11
  call void @llvm.lifetime.end.p0(i64 4, ptr %17) #11
  call void @llvm.lifetime.end.p0(i64 1, ptr %16) #11
  call void @llvm.lifetime.end.p0(i64 2, ptr %15) #11
  call void @llvm.lifetime.end.p0(i64 2, ptr %14) #11
  call void @llvm.lifetime.end.p0(i64 26, ptr %13) #11
  call void @llvm.lifetime.end.p0(i64 8, ptr %12) #11
  %125 = load i1, ptr %6, align 1
  ret i1 %125
}