; Function Attrs: null_pointer_is_valid sspstrong uwtable
define internal fastcc zeroext i1 @peekclassic_read_packet_v56(ptr noundef readonly captures(none) %0, ptr noundef %1, ptr noundef %2, ptr noundef %3, ptr noundef %4) unnamed_addr #0 {
  %6 = alloca [26 x i8], align 16
  %7 = getelementptr inbounds nuw i8, ptr %0, i64 96
  %8 = load ptr, ptr %7, align 8
  call void @llvm.lifetime.start.p0(i64 26, ptr nonnull %6) #6
  %9 = call zeroext i1 @wtap_read_bytes_or_eof(ptr noundef %1, ptr noundef nonnull %6, i32 noundef 26, ptr noundef %3, ptr noundef %4)
  br i1 %9, label %10, label %70

10:                                               ; preds = %5
  %.val38 = load i8, ptr %6, align 16
  %11 = getelementptr inbounds nuw i8, ptr %6, i64 1
  %.val39 = load i8, ptr %11, align 1
  %12 = zext i8 %.val38 to i16
  %13 = shl nuw i16 %12, 8
  %14 = zext i8 %.val39 to i16
  %15 = or disjoint i16 %13, %14
  %16 = getelementptr inbounds nuw i8, ptr %6, i64 2
  %.val = load i8, ptr %16, align 2
  %17 = getelementptr inbounds nuw i8, ptr %6, i64 3
  %.val37 = load i8, ptr %17, align 1
  %18 = zext i8 %.val to i16
  %19 = shl nuw i16 %18, 8
  %20 = zext i8 %.val37 to i16
  %21 = or disjoint i16 %19, %20
  %22 = getelementptr inbounds nuw i8, ptr %6, i64 4
  %23 = load i8, ptr %22, align 4
  %24 = getelementptr inbounds nuw i8, ptr %6, i64 6
  %25 = load i8, ptr %24, align 2
  %26 = zext i8 %25 to i32
  %27 = shl nuw i32 %26, 24
  %28 = getelementptr inbounds nuw i8, ptr %6, i64 7
  %29 = load i8, ptr %28, align 1
  %30 = zext i8 %29 to i32
  %31 = shl nuw nsw i32 %30, 16
  %32 = or disjoint i32 %31, %27
  %33 = getelementptr inbounds nuw i8, ptr %6, i64 8
  %34 = load i8, ptr %33, align 8
  %35 = zext i8 %34 to i32
  %36 = shl nuw nsw i32 %35, 8
  %37 = or disjoint i32 %32, %36
  %38 = getelementptr inbounds nuw i8, ptr %6, i64 9
  %39 = load i8, ptr %38, align 1
  %40 = zext i8 %39 to i32
  %41 = or disjoint i32 %37, %40
  %42 = icmp eq i16 %21, 0
  %spec.select = select i1 %42, i16 %15, i16 %21
  store i32 0, ptr %2, align 8
  %43 = call ptr @wtap_block_create(i32 noundef 5)
  %44 = getelementptr inbounds nuw i8, ptr %2, i64 232
  store ptr %43, ptr %44, align 8
  %45 = getelementptr inbounds nuw i8, ptr %2, i64 4
  store i32 3, ptr %45, align 4
  %46 = load i64, ptr %8, align 8
  %47 = udiv i32 %41, 1000
  %48 = zext nneg i32 %47 to i64
  %49 = add i64 %46, %48
  %50 = getelementptr inbounds nuw i8, ptr %2, i64 16
  store i64 %49, ptr %50, align 8
  %51 = urem i32 %41, 1000
  %52 = mul nuw nsw i32 %51, 1000000
  %53 = getelementptr inbounds nuw i8, ptr %2, i64 24
  store i32 %52, ptr %53, align 8
  %54 = zext i16 %15 to i32
  %55 = getelementptr inbounds nuw i8, ptr %2, i64 64
  %56 = getelementptr inbounds nuw i8, ptr %2, i64 68
  store i32 %54, ptr %56, align 4
  %57 = zext i16 %spec.select to i32
  store i32 %57, ptr %55, align 8
  %58 = zext i8 %23 to i32
  %59 = shl nuw nsw i32 %58, 23
  %.0 = and i32 %59, 16777216
  %60 = shl nuw nsw i32 %58, 21
  %61 = and i32 %60, 100663296
  %.2 = or disjoint i32 %.0, %61
  %62 = call i32 @wtap_block_add_uint32_option(ptr noundef %43, i32 noundef 2, i32 noundef %.2)
  %63 = getelementptr inbounds nuw i8, ptr %0, i64 144
  %64 = load i32, ptr %63, align 8
  %cond = icmp eq i32 %64, 1
  br i1 %cond, label %65, label %67

65:                                               ; preds = %10
  %66 = getelementptr inbounds nuw i8, ptr %2, i64 80
  store i32 0, ptr %66, align 8
  br label %67

67:                                               ; preds = %10, %65
  %68 = getelementptr inbounds nuw i8, ptr %2, i64 280
  %69 = call zeroext i1 @wtap_read_bytes_buffer(ptr noundef %1, ptr noundef nonnull %68, i32 noundef %57, ptr noundef %3, ptr noundef %4)
  br label %70

70:                                               ; preds = %5, %67
  %.033 = phi i1 [ %69, %67 ], [ false, %5 ]
  call void @llvm.lifetime.end.p0(i64 26, ptr nonnull %6) #6
  ret i1 %.033
}